target datalayout = "e-m:e-p270:32:32-p271:32:32-p272:64:64-i64:64-i128:128-f80:128-n8:16:32:64-S128"
target triple = "x86_64-pc-linux-gnu"

%struct.Node = type { i32 }
%struct.Expr = type { i32 }
%union.ListCell = type { ptr }
%struct.CaseTestExpr = type { %struct.Expr, i32, i32, i32 }
%struct.JsonReturning = type { i32, ptr, i32, i32 }
%struct.JsonFormat = type { i32, i32, i32, i32 }
%struct.FuncExpr = type { %struct.Expr, i32, i32, i8, i8, i32, i32, i32, ptr, i32 }
%struct.JsonConstructorExpr = type { %struct.Expr, i32, ptr, ptr, ptr, ptr, i8, i8, i32 }

@.str.41 = private unnamed_addr constant [13 x i8] c"parse_expr.c\00", align 1
@.str.61 = private unnamed_addr constant [26 x i8] c"cannot cast type %s to %s\00", align 1
@.str.148 = private unnamed_addr constant [14 x i8] c"JSON_FUNCTION\00", align 1
@__func__.coerceJsonFuncExpr = private unnamed_addr constant [19 x i8] c"coerceJsonFuncExpr\00", align 1

; Function Attrs: nounwind uwtable
define internal ptr @coerceJsonFuncExpr(ptr noundef %0, ptr noundef %1, ptr noundef %2, i1 noundef zeroext %3) #0 {
  %5 = alloca ptr, align 8
  %6 = alloca ptr, align 8
  %7 = alloca ptr, align 8
  %8 = alloca ptr, align 8
  %9 = alloca i8, align 1
  %10 = alloca ptr, align 8
  %11 = alloca i32, align 4
  %12 = alloca i32, align 4
  %13 = alloca i32, align 4
  %14 = alloca ptr, align 8
  %15 = alloca ptr, align 8
  %16 = alloca ptr, align 8
  %17 = alloca %union.ListCell, align 8
  %18 = alloca %union.ListCell, align 8
  store ptr %0, ptr %6, align 8
  store ptr %1, ptr %7, align 8
  store ptr %2, ptr %8, align 8
  %19 = zext i1 %3 to i8
  store i8 %19, ptr %9, align 1
  call void @llvm.lifetime.start.p0(i64 8, ptr %10) #8
  call void @llvm.lifetime.start.p0(i64 4, ptr %11) #8
  call void @llvm.lifetime.start.p0(i64 4, ptr %12) #8
  %20 = load ptr, ptr %7, align 8
  %21 = call i32 @exprType(ptr noundef %20)
  store i32 %21, ptr %12, align 4
  %22 = load ptr, ptr %8, align 8
  %23 = getelementptr inbounds nuw %struct.JsonReturning, ptr %22, i32 0, i32 2
  %24 = load i32, ptr %23, align 8
  %25 = icmp ne i32 %24, 0
  br i1 %25, label %26, label %32

26:                                               ; preds = %4
  %27 = load ptr, ptr %8, align 8
  %28 = getelementptr inbounds nuw %struct.JsonReturning, ptr %27, i32 0, i32 2
  %29 = load i32, ptr %28, align 8
  %30 = load i32, ptr %12, align 4
  %31 = icmp eq i32 %29, %30
  br i1 %31, label %32, label %34

32:                                               ; preds = %26, %4
  %33 = load ptr, ptr %7, align 8
  store ptr %33, ptr %5, align 8
  store i32 1, ptr %13, align 4
  br label %118

34:                                               ; preds = %26
  %35 = load ptr, ptr %7, align 8
  %36 = call i32 @exprLocation(ptr noundef %35)
  store i32 %36, ptr %11, align 4
  %37 = load i32, ptr %11, align 4
  %38 = icmp slt i32 %37, 0
  br i1 %38, label %39, label %45

39:                                               ; preds = %34
  %40 = load ptr, ptr %8, align 8
  %41 = getelementptr inbounds nuw %struct.JsonReturning, ptr %40, i32 0, i32 1
  %42 = load ptr, ptr %41, align 8
  %43 = getelementptr inbounds nuw %struct.JsonFormat, ptr %42, i32 0, i32 3
  %44 = load i32, ptr %43, align 4
  store i32 %44, ptr %11, align 4
  br label %45

45:                                               ; preds = %39, %34
  %46 = load ptr, ptr %8, align 8
  %47 = getelementptr inbounds nuw %struct.JsonReturning, ptr %46, i32 0, i32 1
  %48 = load ptr, ptr %47, align 8
  %49 = getelementptr inbounds nuw %struct.JsonFormat, ptr %48, i32 0, i32 1
  %50 = load i32, ptr %49, align 4
  %51 = icmp eq i32 %50, 1
  br i1 %51, label %52, label %77

52:                                               ; preds = %45
  %53 = load ptr, ptr %8, align 8
  %54 = getelementptr inbounds nuw %struct.JsonReturning, ptr %53, i32 0, i32 2
  %55 = load i32, ptr %54, align 8
  %56 = icmp eq i32 %55, 17
  br i1 %56, label %57, label %77

57:                                               ; preds = %52
  call void @llvm.lifetime.start.p0(i64 8, ptr %14) #8
  %58 = load ptr, ptr %6, align 8
  %59 = load ptr, ptr %7, align 8
  %60 = call ptr @coerce_to_specific_type(ptr noundef %58, ptr noundef %59, i32 noundef 25, ptr noundef @.str.148)
  store ptr %60, ptr %14, align 8
  call void @llvm.lifetime.start.p0(i64 8, ptr %15) #8
  %61 = load ptr, ptr %8, align 8
  %62 = getelementptr inbounds nuw %struct.JsonReturning, ptr %61, i32 0, i32 1
  %63 = load ptr, ptr %62, align 8
  %64 = call ptr @getJsonEncodingConst(ptr noundef %63)
  store ptr %64, ptr %15, align 8
  call void @llvm.lifetime.start.p0(i64 8, ptr %16) #8
  %65 = load ptr, ptr %14, align 8
  store ptr %65, ptr %17, align 8
  %66 = load ptr, ptr %15, align 8
  store ptr %66, ptr %18, align 8
  %67 = getelementptr inbounds nuw %union.ListCell, ptr %17, i32 0, i32 0
  %68 = load ptr, ptr %67, align 8
  %69 = getelementptr inbounds nuw %union.ListCell, ptr %18, i32 0, i32 0
  %70 = load ptr, ptr %69, align 8
  %71 = call ptr @list_make2_impl(i32 noundef 1, ptr %68, ptr %70)
  %72 = call ptr @makeFuncExpr(i32 noundef 1717, i32 noundef 17, ptr noundef %71, i32 noundef 0, i32 noundef 0, i32 noundef 0)
  store ptr %72, ptr %16, align 8
  %73 = load i32, ptr %11, align 4
  %74 = load ptr, ptr %16, align 8
  %75 = getelementptr inbounds nuw %struct.FuncExpr, ptr %74, i32 0, i32 9
  store i32 %73, ptr %75, align 8
  %76 = load ptr, ptr %16, align 8
  store ptr %76, ptr %5, align 8
  store i32 1, ptr %13, align 4
  call void @llvm.lifetime.end.p0(i64 8, ptr %16) #8
  call void @llvm.lifetime.end.p0(i64 8, ptr %15) #8
  call void @llvm.lifetime.end.p0(i64 8, ptr %14) #8
  br label %118

77:                                               ; preds = %52, %45
  %78 = load ptr, ptr %6, align 8
  %79 = load ptr, ptr %7, align 8
  %80 = load i32, ptr %12, align 4
  %81 = load ptr, ptr %8, align 8
  %82 = getelementptr inbounds nuw %struct.JsonReturning, ptr %81, i32 0, i32 2
  %83 = load i32, ptr %82, align 8
  %84 = load ptr, ptr %8, align 8
  %85 = getelementptr inbounds nuw %struct.JsonReturning, ptr %84, i32 0, i32 3
  %86 = load i32, ptr %85, align 4
  %87 = load i32, ptr %11, align 4
  %88 = call ptr @coerce_to_target_type(ptr noundef %78, ptr noundef %79, i32 noundef %80, i32 noundef %83, i32 noundef %86, i32 noundef 1, i32 noundef 2, i32 noundef %87)
  store ptr %88, ptr %10, align 8
  %89 = load ptr, ptr %10, align 8
  %90 = icmp ne ptr %89, null
  br i1 %90, label %116, label %91

91:                                               ; preds = %77
  %92 = load i8, ptr %9, align 1, !range !6, !noundef !7
  %93 = trunc i8 %92 to i1
  br i1 %93, label %94, label %116

94:                                               ; preds = %91
  br label %95

95:                                               ; preds = %94
  br i1 true, label %96, label %98

96:                                               ; preds = %95
  %97 = call zeroext i1 @errstart_cold(i32 noundef 21, ptr noundef null) #9
  br i1 %97, label %100, label %113

98:                                               ; preds = %95
  %99 = call zeroext i1 @errstart(i32 noundef 21, ptr noundef null)
  br i1 %99, label %100, label %113

100:                                              ; preds = %98, %96
  %101 = call i32 @errcode(i32 noundef 101744772)
  %102 = load i32, ptr %12, align 4
  %103 = call ptr @format_type_be(i32 noundef %102)
  %104 = load ptr, ptr %8, align 8
  %105 = getelementptr inbounds nuw %struct.JsonReturning, ptr %104, i32 0, i32 2
  %106 = load i32, ptr %105, align 8
  %107 = call ptr @format_type_be(i32 noundef %106)
  %108 = call i32 (ptr, ...) @errmsg(ptr noundef @.str.61, ptr noundef %103, ptr noundef %107)
  %109 = load ptr, ptr %6, align 8
  %110 = load i32, ptr %11, align 4
  %111 = load ptr, ptr %7, align 8
  %112 = call i32 @parser_coercion_errposition(ptr noundef %109, i32 noundef %110, ptr noundef %111)
  call void @errfinish(ptr noundef @.str.41, i32 noundef 3645, ptr noundef @__func__.coerceJsonFuncExpr)
  br label %113

113:                                              ; preds = %100, %98, %96
  unreachable

114:                                              ; No predecessors!
  br label %115

115:                                              ; preds = %114
  br label %116

116:                                              ; preds = %115, %91, %77
  %117 = load ptr, ptr %10, align 8
  store ptr %117, ptr %5, align 8
  store i32 1, ptr %13, align 4
  br label %118

118:                                              ; preds = %116, %57, %32
  call void @llvm.lifetime.end.p0(i64 4, ptr %12) #8
  call void @llvm.lifetime.end.p0(i64 4, ptr %11) #8
  call void @llvm.lifetime.end.p0(i64 8, ptr %10) #8
  %119 = load ptr, ptr %5, align 8
  ret ptr %119
}

; Function Attrs: inlinehint nounwind uwtable
define internal ptr @newNode(i64 noundef %0, i32 noundef %1) #4 {
  %3 = alloca i64, align 8
  %4 = alloca i32, align 4
  %5 = alloca ptr, align 8
  store i64 %0, ptr %3, align 8
  store i32 %1, ptr %4, align 4
  call void @llvm.lifetime.start.p0(i64 8, ptr %5) #8
  %6 = load i64, ptr %3, align 8
  %7 = call ptr @palloc0(i64 noundef %6)
  store ptr %7, ptr %5, align 8
  %8 = load i32, ptr %4, align 4
  %9 = load ptr, ptr %5, align 8
  %10 = getelementptr inbounds nuw %struct.Node, ptr %9, i32 0, i32 0
  store i32 %8, ptr %10, align 4
  %11 = load ptr, ptr %5, align 8
  call void @llvm.lifetime.end.p0(i64 8, ptr %5) #8
  ret ptr %11
}

; Function Attrs: nounwind uwtable
define internal ptr @makeJsonConstructorExpr(ptr noundef %0, i32 noundef %1, ptr noundef %2, ptr noundef %3, ptr noundef %4, i1 noundef zeroext %5, i1 noundef zeroext %6, i32 noundef %7) #0 {
  %9 = alloca ptr, align 8
  %10 = alloca i32, align 4
  %11 = alloca ptr, align 8
  %12 = alloca ptr, align 8
  %13 = alloca ptr, align 8
  %14 = alloca i8, align 1
  %15 = alloca i8, align 1
  %16 = alloca i32, align 4
  %17 = alloca ptr, align 8
  %18 = alloca ptr, align 8
  %19 = alloca ptr, align 8
  %20 = alloca ptr, align 8
  %21 = alloca ptr, align 8
  store ptr %0, ptr %9, align 8
  store i32 %1, ptr %10, align 4
  store ptr %2, ptr %11, align 8
  store ptr %3, ptr %12, align 8
  store ptr %4, ptr %13, align 8
  %22 = zext i1 %5 to i8
  store i8 %22, ptr %14, align 1
  %23 = zext i1 %6 to i8
  store i8 %23, ptr %15, align 1
  store i32 %7, ptr %16, align 4
  call void @llvm.lifetime.start.p0(i64 8, ptr %17) #8
  %24 = call ptr @newNode(i64 noundef 48, i32 noundef 45)
  store ptr %24, ptr %17, align 8
  call void @llvm.lifetime.start.p0(i64 8, ptr %18) #8
  call void @llvm.lifetime.start.p0(i64 8, ptr %19) #8
  %25 = load ptr, ptr %11, align 8
  %26 = load ptr, ptr %17, align 8
  %27 = getelementptr inbounds nuw %struct.JsonConstructorExpr, ptr %26, i32 0, i32 2
  store ptr %25, ptr %27, align 8
  %28 = load ptr, ptr %12, align 8
  %29 = load ptr, ptr %17, align 8
  %30 = getelementptr inbounds nuw %struct.JsonConstructorExpr, ptr %29, i32 0, i32 3
  store ptr %28, ptr %30, align 8
  %31 = load i32, ptr %10, align 4
  %32 = load ptr, ptr %17, align 8
  %33 = getelementptr inbounds nuw %struct.JsonConstructorExpr, ptr %32, i32 0, i32 1
  store i32 %31, ptr %33, align 4
  %34 = load ptr, ptr %13, align 8
  %35 = load ptr, ptr %17, align 8
  %36 = getelementptr inbounds nuw %struct.JsonConstructorExpr, ptr %35, i32 0, i32 5
  store ptr %34, ptr %36, align 8
  %37 = load i8, ptr %14, align 1, !range !6, !noundef !7
  %38 = trunc i8 %37 to i1
  %39 = load ptr, ptr %17, align 8
  %40 = getelementptr inbounds nuw %struct.JsonConstructorExpr, ptr %39, i32 0, i32 7
  %41 = zext i1 %38 to i8
  store i8 %41, ptr %40, align 1
  %42 = load i8, ptr %15, align 1, !range !6, !noundef !7
  %43 = trunc i8 %42 to i1
  %44 = load ptr, ptr %17, align 8
  %45 = getelementptr inbounds nuw %struct.JsonConstructorExpr, ptr %44, i32 0, i32 6
  %46 = zext i1 %43 to i8
  store i8 %46, ptr %45, align 8
  %47 = load i32, ptr %16, align 4
  %48 = load ptr, ptr %17, align 8
  %49 = getelementptr inbounds nuw %struct.JsonConstructorExpr, ptr %48, i32 0, i32 8
  store i32 %47, ptr %49, align 4
  %50 = load ptr, ptr %12, align 8
  %51 = icmp ne ptr %50, null
  br i1 %51, label %52, label %67

52:                                               ; preds = %8
  call void @llvm.lifetime.start.p0(i64 8, ptr %20) #8
  %53 = call ptr @newNode(i64 noundef 16, i32 noundef 34)
  store ptr %53, ptr %20, align 8
  %54 = load ptr, ptr %12, align 8
  %55 = call i32 @exprType(ptr noundef %54)
  %56 = load ptr, ptr %20, align 8
  %57 = getelementptr inbounds nuw %struct.CaseTestExpr, ptr %56, i32 0, i32 1
  store i32 %55, ptr %57, align 4
  %58 = load ptr, ptr %12, align 8
  %59 = call i32 @exprTypmod(ptr noundef %58)
  %60 = load ptr, ptr %20, align 8
  %61 = getelementptr inbounds nuw %struct.CaseTestExpr, ptr %60, i32 0, i32 2
  store i32 %59, ptr %61, align 4
  %62 = load ptr, ptr %12, align 8
  %63 = call i32 @exprCollation(ptr noundef %62)
  %64 = load ptr, ptr %20, align 8
  %65 = getelementptr inbounds nuw %struct.CaseTestExpr, ptr %64, i32 0, i32 3
  store i32 %63, ptr %65, align 4
  %66 = load ptr, ptr %20, align 8
  store ptr %66, ptr %18, align 8
  call void @llvm.lifetime.end.p0(i64 8, ptr %20) #8
  br label %83

67:                                               ; preds = %8
  call void @llvm.lifetime.start.p0(i64 8, ptr %21) #8
  %68 = call ptr @newNode(i64 noundef 16, i32 noundef 34)
  store ptr %68, ptr %21, align 8
  %69 = load ptr, ptr %13, align 8
  %70 = getelementptr inbounds nuw %struct.JsonReturning, ptr %69, i32 0, i32 1
  %71 = load ptr, ptr %70, align 8
  %72 = getelementptr inbounds nuw %struct.JsonFormat, ptr %71, i32 0, i32 1
  %73 = load i32, ptr %72, align 4
  %74 = icmp eq i32 %73, 2
  %75 = select i1 %74, i32 3802, i32 114
  %76 = load ptr, ptr %21, align 8
  %77 = getelementptr inbounds nuw %struct.CaseTestExpr, ptr %76, i32 0, i32 1
  store i32 %75, ptr %77, align 4
  %78 = load ptr, ptr %21, align 8
  %79 = getelementptr inbounds nuw %struct.CaseTestExpr, ptr %78, i32 0, i32 2
  store i32 -1, ptr %79, align 4
  %80 = load ptr, ptr %21, align 8
  %81 = getelementptr inbounds nuw %struct.CaseTestExpr, ptr %80, i32 0, i32 3
  store i32 0, ptr %81, align 4
  %82 = load ptr, ptr %21, align 8
  store ptr %82, ptr %18, align 8
  call void @llvm.lifetime.end.p0(i64 8, ptr %21) #8
  br label %83

83:                                               ; preds = %67, %52
  %84 = load ptr, ptr %9, align 8
  %85 = load ptr, ptr %18, align 8
  %86 = load ptr, ptr %13, align 8
  %87 = call ptr @coerceJsonFuncExpr(ptr noundef %84, ptr noundef %85, ptr noundef %86, i1 noundef zeroext true)
  store ptr %87, ptr %19, align 8
  %88 = load ptr, ptr %19, align 8
  %89 = load ptr, ptr %18, align 8
  %90 = icmp ne ptr %88, %89
  br i1 %90, label %91, label %95

91:                                               ; preds = %83
  %92 = load ptr, ptr %19, align 8
  %93 = load ptr, ptr %17, align 8
  %94 = getelementptr inbounds nuw %struct.JsonConstructorExpr, ptr %93, i32 0, i32 4
  store ptr %92, ptr %94, align 8
  br label %95

95:                                               ; preds = %91, %83
  %96 = load ptr, ptr %17, align 8
  call void @llvm.lifetime.end.p0(i64 8, ptr %19) #8
  call void @llvm.lifetime.end.p0(i64 8, ptr %18) #8
  call void @llvm.lifetime.end.p0(i64 8, ptr %17) #8
  ret ptr %96
}