; Function Attrs: nounwind uwtable
define internal fastcc noundef ptr @makeJsonConstructorExpr(ptr noundef %0, i32 noundef range(i32 1, 8) %1, ptr noundef %2, ptr noundef %3, ptr noundef %4, i1 noundef zeroext %5, i1 noundef zeroext %6, i32 noundef %7) unnamed_addr #0 {
  %9 = zext i1 %5 to i8
  %10 = zext i1 %6 to i8
  %11 = tail call noundef ptr @palloc0(i64 noundef 48) #9
  store i32 45, ptr %11, align 4
  %12 = getelementptr inbounds nuw i8, ptr %11, i64 8
  store ptr %2, ptr %12, align 8
  %13 = getelementptr inbounds nuw i8, ptr %11, i64 16
  store ptr %3, ptr %13, align 8
  %14 = getelementptr inbounds nuw i8, ptr %11, i64 4
  store i32 %1, ptr %14, align 4
  %15 = getelementptr inbounds nuw i8, ptr %11, i64 32
  store ptr %4, ptr %15, align 8
  %16 = getelementptr inbounds nuw i8, ptr %11, i64 41
  store i8 %9, ptr %16, align 1
  %17 = getelementptr inbounds nuw i8, ptr %11, i64 40
  store i8 %10, ptr %17, align 8
  %18 = getelementptr inbounds nuw i8, ptr %11, i64 44
  store i32 %7, ptr %18, align 4
  %.not = icmp eq ptr %3, null
  %19 = tail call noundef ptr @palloc0(i64 noundef 16) #9
  store i32 34, ptr %19, align 4
  br i1 %.not, label %26, label %20

20:                                               ; preds = %8
  %21 = tail call i32 @exprType(ptr noundef nonnull %3) #9
  %22 = getelementptr inbounds nuw i8, ptr %19, i64 4
  store i32 %21, ptr %22, align 4
  %23 = tail call i32 @exprTypmod(ptr noundef nonnull %3) #9
  %24 = getelementptr inbounds nuw i8, ptr %19, i64 8
  store i32 %23, ptr %24, align 4
  %25 = tail call i32 @exprCollation(ptr noundef nonnull %3) #9
  br label %35

26:                                               ; preds = %8
  %27 = getelementptr inbounds nuw i8, ptr %4, i64 8
  %28 = load ptr, ptr %27, align 8
  %29 = getelementptr inbounds nuw i8, ptr %28, i64 4
  %30 = load i32, ptr %29, align 4
  %31 = icmp eq i32 %30, 2
  %32 = select i1 %31, i32 3802, i32 114
  %33 = getelementptr inbounds nuw i8, ptr %19, i64 4
  store i32 %32, ptr %33, align 4
  %34 = getelementptr inbounds nuw i8, ptr %19, i64 8
  store i32 -1, ptr %34, align 4
  br label %35

35:                                               ; preds = %26, %20
  %.sink = phi i32 [ 0, %26 ], [ %25, %20 ]
  %36 = getelementptr inbounds nuw i8, ptr %19, i64 12
  store i32 %.sink, ptr %36, align 4
  %37 = tail call i32 @exprType(ptr noundef nonnull %19) #9
  %38 = getelementptr inbounds nuw i8, ptr %4, i64 16
  %39 = load i32, ptr %38, align 8
  %.not.i = icmp eq i32 %39, 0
  %40 = icmp eq i32 %39, %37
  %or.cond.i = select i1 %.not.i, i1 true, i1 %40
  br i1 %or.cond.i, label %coerceJsonFuncExpr.exit.thread, label %41

41:                                               ; preds = %35
  %42 = tail call i32 @exprLocation(ptr noundef nonnull %19) #9
  %43 = icmp slt i32 %42, 0
  %44 = getelementptr inbounds nuw i8, ptr %4, i64 8
  %45 = load ptr, ptr %44, align 8
  br i1 %43, label %46, label %._crit_edge.i

46:                                               ; preds = %41
  %47 = getelementptr inbounds nuw i8, ptr %45, i64 12
  %48 = load i32, ptr %47, align 4
  br label %._crit_edge.i

._crit_edge.i:                                    ; preds = %46, %41
  %.033.i = phi i32 [ %48, %46 ], [ %42, %41 ]
  %49 = getelementptr inbounds nuw i8, ptr %45, i64 4
  %50 = load i32, ptr %49, align 4
  %51 = icmp eq i32 %50, 1
  %.pre38.i = load i32, ptr %38, align 8
  %52 = icmp eq i32 %.pre38.i, 17
  %or.cond39.i = select i1 %51, i1 %52, i1 false
  br i1 %or.cond39.i, label %53, label %60

53:                                               ; preds = %._crit_edge.i
  %54 = tail call ptr @coerce_to_specific_type(ptr noundef %0, ptr noundef nonnull %19, i32 noundef 25, ptr noundef nonnull @.str.148) #9
  %55 = load ptr, ptr %44, align 8
  %56 = tail call fastcc ptr @getJsonEncodingConst(ptr noundef %55)
  %57 = tail call ptr @list_make2_impl(i32 noundef 1, ptr %54, ptr %56) #9
  %58 = tail call ptr @makeFuncExpr(i32 noundef 1717, i32 noundef 17, ptr noundef %57, i32 noundef 0, i32 noundef 0, i32 noundef 0) #9
  %59 = getelementptr inbounds nuw i8, ptr %58, i64 40
  store i32 %.033.i, ptr %59, align 8
  br label %coerceJsonFuncExpr.exit

60:                                               ; preds = %._crit_edge.i
  %61 = getelementptr inbounds nuw i8, ptr %4, i64 20
  %62 = load i32, ptr %61, align 4
  %63 = tail call ptr @coerce_to_target_type(ptr noundef %0, ptr noundef nonnull %19, i32 noundef %37, i32 noundef %.pre38.i, i32 noundef %62, i32 noundef 1, i32 noundef 2, i32 noundef %.033.i) #9
  %.not37.i = icmp eq ptr %63, null
  br i1 %.not37.i, label %64, label %coerceJsonFuncExpr.exit

64:                                               ; preds = %60
  %65 = tail call zeroext i1 @errstart_cold(i32 noundef 21, ptr noundef null) #10
  tail call void @llvm.assume(i1 %65)
  %66 = tail call i32 @errcode(i32 noundef 101744772) #9
  %67 = tail call ptr @format_type_be(i32 noundef %37) #9
  %68 = load i32, ptr %38, align 8
  %69 = tail call ptr @format_type_be(i32 noundef %68) #9
  %70 = tail call i32 (ptr, ...) @errmsg(ptr noundef nonnull @.str.61, ptr noundef %67, ptr noundef %69) #9
  %71 = tail call i32 @parser_coercion_errposition(ptr noundef %0, i32 noundef %.033.i, ptr noundef nonnull %19) #9
  tail call void @errfinish(ptr noundef nonnull @.str.41, i32 noundef 3645, ptr noundef nonnull @__func__.coerceJsonFuncExpr) #9
  unreachable

coerceJsonFuncExpr.exit:                          ; preds = %53, %60
  %.0.i = phi ptr [ %58, %53 ], [ %63, %60 ]
  %.not36 = icmp eq ptr %.0.i, %19
  br i1 %.not36, label %coerceJsonFuncExpr.exit.thread, label %72

72:                                               ; preds = %coerceJsonFuncExpr.exit
  %73 = getelementptr inbounds nuw i8, ptr %11, i64 24
  store ptr %.0.i, ptr %73, align 8
  br label %coerceJsonFuncExpr.exit.thread

coerceJsonFuncExpr.exit.thread:                   ; preds = %35, %72, %coerceJsonFuncExpr.exit
  ret ptr %11
}